target datalayout = "e-m:e-p270:32:32-p271:32:32-p272:64:64-i64:64-i128:128-f80:128-n8:16:32:64-S128"
target triple = "x86_64-pc-linux-gnu"

%struct._GTypeInstance = type { ptr }
%struct._GTypeClass = type { i64 }

@.str.180 = private unnamed_addr constant [28 x i8] c"GTK_IS_CONTAINER(container)\00", align 1
@__func__.dt_gui_container_nth_child = private unnamed_addr constant [27 x i8] c"dt_gui_container_nth_child\00", align 1

; Function Attrs: nounwind uwtable
define ptr @dt_gui_container_nth_child(ptr noundef %0, i32 noundef %1) #0 {
  %3 = alloca ptr, align 8
  %4 = alloca ptr, align 8
  %5 = alloca i32, align 4
  %6 = alloca i32, align 4
  %7 = alloca ptr, align 8
  %8 = alloca i64, align 8
  %9 = alloca i32, align 4
  %10 = alloca i32, align 4
  %11 = alloca i32, align 4
  %12 = alloca ptr, align 8
  %13 = alloca ptr, align 8
  store ptr %0, ptr %4, align 8, !tbaa !233
  store i32 %1, ptr %5, align 4, !tbaa !17
  br label %14

14:                                               ; preds = %2
  call void @llvm.lifetime.start.p0(i64 4, ptr %6) #15
  call void @llvm.lifetime.start.p0(i64 8, ptr %7) #15
  %15 = load ptr, ptr %4, align 8, !tbaa !233
  store ptr %15, ptr %7, align 8, !tbaa !225
  call void @llvm.lifetime.start.p0(i64 8, ptr %8) #15
  %16 = call i64 @gtk_container_get_type() #16
  store i64 %16, ptr %8, align 8, !tbaa !227
  call void @llvm.lifetime.start.p0(i64 4, ptr %9) #15
  %17 = load ptr, ptr %7, align 8, !tbaa !225
  %18 = icmp ne ptr %17, null
  br i1 %18, label %20, label %19

19:                                               ; preds = %14
  store i32 0, ptr %9, align 4, !tbaa !17
  br label %39

20:                                               ; preds = %14
  %21 = load ptr, ptr %7, align 8, !tbaa !225
  %22 = getelementptr inbounds nuw %struct._GTypeInstance, ptr %21, i32 0, i32 0
  %23 = load ptr, ptr %22, align 8, !tbaa !228
  %24 = icmp ne ptr %23, null
  br i1 %24, label %25, label %34

25:                                               ; preds = %20
  %26 = load ptr, ptr %7, align 8, !tbaa !225
  %27 = getelementptr inbounds nuw %struct._GTypeInstance, ptr %26, i32 0, i32 0
  %28 = load ptr, ptr %27, align 8, !tbaa !228
  %29 = getelementptr inbounds nuw %struct._GTypeClass, ptr %28, i32 0, i32 0
  %30 = load i64, ptr %29, align 8, !tbaa !231
  %31 = load i64, ptr %8, align 8, !tbaa !227
  %32 = icmp eq i64 %30, %31
  br i1 %32, label %33, label %34

33:                                               ; preds = %25
  store i32 1, ptr %9, align 4, !tbaa !17
  br label %38

34:                                               ; preds = %25, %20
  %35 = load ptr, ptr %7, align 8, !tbaa !225
  %36 = load i64, ptr %8, align 8, !tbaa !227
  %37 = call i32 @g_type_check_instance_is_a(ptr noundef %35, i64 noundef %36) #18
  store i32 %37, ptr %9, align 4, !tbaa !17
  br label %38

38:                                               ; preds = %34, %33
  br label %39

39:                                               ; preds = %38, %19
  %40 = load i32, ptr %9, align 4, !tbaa !17
  store i32 %40, ptr %10, align 4, !tbaa !17
  call void @llvm.lifetime.end.p0(i64 4, ptr %9) #15
  call void @llvm.lifetime.end.p0(i64 8, ptr %8) #15
  call void @llvm.lifetime.end.p0(i64 8, ptr %7) #15
  %41 = load i32, ptr %10, align 4, !tbaa !17
  %42 = icmp ne i32 %41, 0
  br i1 %42, label %43, label %44

43:                                               ; preds = %39
  store i32 1, ptr %6, align 4, !tbaa !17
  br label %45

44:                                               ; preds = %39
  store i32 0, ptr %6, align 4, !tbaa !17
  br label %45

45:                                               ; preds = %44, %43
  %46 = load i32, ptr %6, align 4, !tbaa !17
  store i32 %46, ptr %11, align 4, !tbaa !17
  call void @llvm.lifetime.end.p0(i64 4, ptr %6) #15
  %47 = load i32, ptr %11, align 4, !tbaa !17
  %48 = sext i32 %47 to i64
  %49 = call i64 @llvm.expect.i64(i64 %48, i64 1)
  %50 = icmp ne i64 %49, 0
  br i1 %50, label %51, label %52

51:                                               ; preds = %45
  br label %53

52:                                               ; preds = %45
  call void @g_return_if_fail_warning(ptr noundef null, ptr noundef @__func__.dt_gui_container_nth_child, ptr noundef @.str.180)
  store ptr null, ptr %3, align 8
  br label %62

53:                                               ; preds = %51
  br label %54

54:                                               ; preds = %53
  call void @llvm.lifetime.start.p0(i64 8, ptr %12) #15
  %55 = load ptr, ptr %4, align 8, !tbaa !233
  %56 = call ptr @gtk_container_get_children(ptr noundef %55)
  store ptr %56, ptr %12, align 8, !tbaa !138
  call void @llvm.lifetime.start.p0(i64 8, ptr %13) #15
  %57 = load ptr, ptr %12, align 8, !tbaa !138
  %58 = load i32, ptr %5, align 4, !tbaa !17
  %59 = call ptr @g_list_nth_data(ptr noundef %57, i32 noundef %58)
  store ptr %59, ptr %13, align 8, !tbaa !6
  %60 = load ptr, ptr %12, align 8, !tbaa !138
  call void @g_list_free(ptr noundef %60)
  %61 = load ptr, ptr %13, align 8, !tbaa !6
  store ptr %61, ptr %3, align 8
  call void @llvm.lifetime.end.p0(i64 8, ptr %13) #15
  call void @llvm.lifetime.end.p0(i64 8, ptr %12) #15
  br label %62

62:                                               ; preds = %54, %52
  %63 = load ptr, ptr %3, align 8
  ret ptr %63
}