; Function Attrs: nounwind uwtable
define ptr @dt_gui_container_nth_child(ptr noundef %0, i32 noundef %1) local_unnamed_addr #0 {
  %3 = tail call i64 @gtk_container_get_type() #19
  %.not = icmp eq ptr %0, null
  br i1 %.not, label %.critedge, label %4

4:                                                ; preds = %2
  %5 = load ptr, ptr %0, align 8, !tbaa !77
  %.not20 = icmp eq ptr %5, null
  br i1 %.not20, label %9, label %6

6:                                                ; preds = %4
  %7 = load i64, ptr %5, align 8, !tbaa !80
  %8 = icmp eq i64 %7, %3
  br i1 %8, label %.critedge24, label %9

9:                                                ; preds = %6, %4
  %10 = tail call i32 @g_type_check_instance_is_a(ptr noundef nonnull %0, i64 noundef %3) #20
  %11 = icmp eq i32 %10, 0
  br i1 %11, label %.critedge, label %.critedge24, !prof !82

.critedge:                                        ; preds = %2, %9
  tail call void @g_return_if_fail_warning(ptr noundef null, ptr noundef nonnull @__func__.dt_gui_container_nth_child, ptr noundef nonnull @.str.180) #18
  br label %14

.critedge24:                                      ; preds = %6, %9
  %12 = tail call ptr @gtk_container_get_children(ptr noundef nonnull %0) #18
  %13 = tail call ptr @g_list_nth_data(ptr noundef %12, i32 noundef %1) #18
  tail call void @g_list_free(ptr noundef %12) #18
  br label %14

14:                                               ; preds = %.critedge24, %.critedge
  %.0 = phi ptr [ %13, %.critedge24 ], [ null, %.critedge ]
  ret ptr %.0
}